Certificate:
    Data:
        Version: 3 (0x2)
        Serial Number:
            2d:0f:e5:f0:00:44:77:c3:e0:31:8d:ba:18:07:c8:be
        Signature Algorithm: sha256WithRSAEncryption
        Issuer: C=IN, O=Example, CN=Example SubCA
        Validity
            Not Before: Jun 15 07:55:05 2019 GMT
            Not After : Jun 14 07:55:05 2020 GMT
        Subject: C=IN, ST=Delhi, O=Example, OU=HR, CN=127.0.0.1/emailAddress=me@example.com
        Subject Public Key Info:
            Public Key Algorithm: rsaEncryption
                RSA Public-Key: (4096 bit)
                Modulus:
                    00:bb:e9:8e:2d:31:70:df:d4:ab:57:ae:ae:08:98:
                    31:8c:bc:1e:d5:95:6a:81:6c:da:3d:7a:de:e4:4d:
                    3e:90:8e:4f:7c:4c:71:a8:e4:c2:ec:5c:2f:c5:f7:
                    55:38:64:e6:78:a9:ba:6f:d0:6e:6e:06:4e:bc:a5:
                    d3:31:cc:73:38:26:58:fc:1b:88:82:0e:d1:64:cc:
                    3f:45:cd:eb:59:41:17:5a:04:b0:12:63:06:f0:78:
                    73:17:bb:92:6d:f1:81:67:35:0b:c5:34:61:e1:8f:
                    fe:20:fb:26:a4:08:c4:ab:dd:5a:36:95:82:f9:11:
                    6f:81:2e:b3:90:7f:ce:0e:6e:f0:f5:82:e2:08:aa:
                    85:25:04:6e:d8:28:40:7f:ba:6c:3d:ed:af:a7:0d:
                    3d:cd:35:9d:fb:3d:a2:8d:74:bc:f5:be:79:75:00:
                    e9:0e:61:c3:96:64:12:11:7d:02:35:f6:46:b0:91:
                    f9:2a:fe:28:cc:76:04:27:28:99:02:6b:35:c4:47:
                    57:5c:90:0e:c2:1d:bb:6d:04:d9:fa:06:98:2c:53:
                    62:56:b8:44:a0:97:da:de:32:49:0f:8f:d9:30:6d:
                    65:ab:ce:8f:e4:f9:31:06:74:91:47:96:86:76:34:
                    c4:32:74:a1:04:f9:ae:c9:f9:40:07:a0:93:12:6f:
                    c4:ed:23:6f:7a:8b:40:02:22:98:54:95:a9:e7:00:
                    86:d5:6a:fb:d9:29:27:0b:76:c4:b1:14:ed:3a:e2:
                    c9:b6:ce:0d:b8:83:1e:cd:36:4a:c0:a6:21:aa:fe:
                    49:fe:72:2f:89:fa:e7:bb:a5:2a:c4:ce:29:5b:3f:
                    22:02:46:76:8e:e7:9d:10:ef:05:64:2e:6c:f9:10:
                    31:0f:ea:08:2d:9e:22:22:c5:aa:d4:87:11:f2:f1:
                    0a:c9:e2:7c:31:c2:f2:06:77:09:b2:e8:ac:1a:eb:
                    f9:0e:eb:ac:eb:29:a9:b8:34:ea:79:7a:10:5e:d3:
                    58:68:08:a9:8c:ed:ac:92:23:60:1e:63:a2:2f:ee:
                    17:1d:ac:9a:e0:52:19:3a:76:09:df:dd:31:b4:dd:
                    b3:4c:9b:61:86:5b:df:34:41:f0:34:de:c6:8a:d8:
                    10:66:3a:f4:02:4a:59:68:9b:f0:31:39:3b:7e:77:
                    b7:fd:88:c4:72:f0:5e:38:36:41:1b:85:03:f8:51:
                    3a:8c:1e:cf:6f:1f:23:51:ad:85:2a:a0:db:2f:16:
                    65:06:87:4b:ad:18:43:f0:a2:15:a1:76:10:b9:6c:
                    c2:92:97:13:57:18:bf:01:eb:2c:e4:c0:2e:b7:68:
                    45:92:e7:ff:70:51:62:4a:36:30:f9:42:19:c9:d1:
                    38:72:eb
                Exponent: 65537 (0x10001)
        X509v3 extensions:
            Authority Information Access: 
                CA Issuers - URI:http://sub-ca.example.com/sub-ca.crt
                OCSP - URI:http://ocsp.sub-ca.example.com:9081

            X509v3 Authority Key Identifier: 
                keyid:DD:C4:4A:9E:ED:9B:87:2A:56:E0:FB:8C:6C:F5:C1:2C:79:D3:26:97

            X509v3 Basic Constraints: critical
                CA:FALSE
            X509v3 CRL Distribution Points: 

                Full Name:
                  URI:http://sub-ca.example.com/sub-ca.crl

            X509v3 Extended Key Usage: 
                TLS Web Client Authentication, TLS Web Server Authentication
            X509v3 Key Usage: critical
                Digital Signature, Key Encipherment
            X509v3 Subject Key Identifier: 
                79:38:D7:2A:FC:06:F2:C9:D0:F2:0E:CF:15:1C:5E:A6:04:3F:E4:2B
    Signature Algorithm: sha256WithRSAEncryption
         0a:9a:21:06:3f:fb:86:aa:46:6b:44:07:42:43:dc:e3:a9:44:
         4a:a0:b7:80:16:6b:69:4f:80:61:70:6b:9a:f0:03:dc:a0:cb:
         9f:d9:20:e3:c6:e1:e8:d2:8d:7b:76:67:28:01:69:8c:6e:fe:
         35:e3:27:a2:26:0e:7e:5c:a4:1f:87:7c:57:af:e9:23:c1:2d:
         11:e9:d9:42:a8:36:b2:cc:08:3d:e8:12:c2:52:e1:e7:0f:74:
         fe:cf:e3:0f:5f:76:de:c1:56:ae:96:c0:43:68:6b:52:35:1b:
         38:85:b5:91:8d:ec:2f:50:f3:4c:92:09:b8:c5:49:bf:88:bb:
         40:98:9c:5c:09:4a:c7:c7:56:0c:06:d9:c3:b0:62:05:d8:48:
         ce:66:83:1e:9b:e1:e8:65:89:ac:de:be:99:16:b8:e0:a7:fc:
         49:06:00:67:79:68:aa:1d:53:ca:76:1a:7a:59:6b:8f:28:04:
         e0:13:df:fc:60:64:ea:55:91:1d:bf:46:f7:62:ee:81:5d:7b:
         a8:80:f4:78:81:41:27:f3:33:4d:ee:12:09:4b:4d:87:15:5f:
         8b:29:3b:b1:5a:63:a5:1a:64:53:de:9b:ad:b5:89:77:c7:c4:
         41:ae:9e:34:d5:07:7d:d1:08:b6:be:24:c9:20:82:39:23:bc:
         df:97:90:72:1d:78:c6:61:7a:ca:cc:97:43:00:e4:75:a3:f1:
         d1:62:78:a3:43:e7:79:ee:33:fb:27:34:e2:f3:e3:c7:f1:04:
         d0:09:40:e7:72:47:03:d9:57:de:85:4f:b5:cd:60:87:69:a3:
         29:7e:d9:27:52:41:38:82:61:ee:fc:b0:4e:9e:39:15:20:9f:
         6b:d6:17:a1:ca:6b:29:63:a6:98:f2:c7:d8:1c:64:52:b0:b6:
         67:d9:1b:64:c3:6f:e0:34:62:b7:aa:9c:ab:72:88:0d:ff:77:
         d0:2f:75:e4:dc:0d:1a:d3:4c:8e:f2:9f:ae:b6:49:03:a4:ac:
         ea:40:18:60:5c:2f:d4:b3:13:92:90:df:b9:e1:d3:da:7a:66:
         90:92:6a:bd:3e:52:75:52:f9:22:f6:96:03:46:36:ce:5c:a9:
         b5:a9:14:4d:46:70:1e:2b:10:7b:9c:1e:22:19:05:73:9b:35:
         1a:1f:52:c6:a0:df:e7:7f:38:e6:54:89:0a:3b:f4:52:e0:4b:
         38:4b:a6:d5:d8:22:a9:f2:eb:a7:8a:ca:97:52:11:1f:cc:49:
         90:86:85:0c:b0:14:57:5c:f9:52:fa:7e:df:42:97:90:ce:aa:
         f0:f6:eb:a2:cd:74:f6:48:a0:02:71:6f:16:30:5f:f7:ac:f0:
         7b:de:9d:d8:88:19:2d:51
-----BEGIN CERTIFICATE-----
MIIGXTCCBEWgAwIBAgIQLQ/l8ABEd8PgMY26GAfIvjANBgkqhkiG9w0BAQsFADA3
MQswCQYDVQQGEwJJTjEQMA4GA1UECgwHRXhhbXBsZTEWMBQGA1UEAwwNRXhhbXBs
ZSBTdWJDQTAeFw0xOTA2MTUwNzU1MDVaFw0yMDA2MTQwNzU1MDVaMG8xCzAJBgNV
BAYTAklOMQ4wDAYDVQQIDAVEZWxoaTEQMA4GA1UECgwHRXhhbXBsZTELMAkGA1UE
CwwCSFIxEjAQBgNVBAMMCTEyNy4wLjAuMTEdMBsGCSqGSIb3DQEJARYObWVAZXhh
bXBsZS5jb20wggIiMA0GCSqGSIb3DQEBAQUAA4ICDwAwggIKAoICAQC76Y4tMXDf
1KtXrq4ImDGMvB7VlWqBbNo9et7kTT6Qjk98THGo5MLsXC/F91U4ZOZ4qbpv0G5u
Bk68pdMxzHM4Jlj8G4iCDtFkzD9FzetZQRdaBLASYwbweHMXu5Jt8YFnNQvFNGHh
j/4g+yakCMSr3Vo2lYL5EW+BLrOQf84ObvD1guIIqoUlBG7YKEB/umw97a+nDT3N
NZ37PaKNdLz1vnl1AOkOYcOWZBIRfQI19kawkfkq/ijMdgQnKJkCazXER1dckA7C
HbttBNn6BpgsU2JWuESgl9reMkkPj9kwbWWrzo/k+TEGdJFHloZ2NMQydKEE+a7J
+UAHoJMSb8TtI296i0ACIphUlannAIbVavvZKScLdsSxFO064sm2zg24gx7NNkrA
piGq/kn+ci+J+ue7pSrEzilbPyICRnaO550Q7wVkLmz5EDEP6ggtniIixarUhxHy
8QrJ4nwxwvIGdwmy6Kwa6/kO66zrKam4NOp5ehBe01hoCKmM7aySI2AeY6Iv7hcd
rJrgUhk6dgnf3TG03bNMm2GGW980QfA03saK2BBmOvQCSllom/AxOTt+d7f9iMRy
8F44NkEbhQP4UTqMHs9vHyNRrYUqoNsvFmUGh0utGEPwohWhdhC5bMKSlxNXGL8B
6yzkwC63aEWS5/9wUWJKNjD5QhnJ0Thy6wIDAQABo4IBKzCCAScwcQYIKwYBBQUH
AQEEZTBjMDAGCCsGAQUFBzAChiRodHRwOi8vc3ViLWNhLmV4YW1wbGUuY29tL3N1
Yi1jYS5jcnQwLwYIKwYBBQUHMAGGI2h0dHA6Ly9vY3NwLnN1Yi1jYS5leGFtcGxl
LmNvbTo5MDgxMB8GA1UdIwQYMBaAFN3ESp7tm4cqVuD7jGz1wSx50yaXMAwGA1Ud
EwEB/wQCMAAwNQYDVR0fBC4wLDAqoCigJoYkaHR0cDovL3N1Yi1jYS5leGFtcGxl
LmNvbS9zdWItY2EuY3JsMB0GA1UdJQQWMBQGCCsGAQUFBwMCBggrBgEFBQcDATAO
BgNVHQ8BAf8EBAMCBaAwHQYDVR0OBBYEFHk41yr8BvLJ0PIOzxUcXqYEP+QrMA0G
CSqGSIb3DQEBCwUAA4ICAQAKmiEGP/uGqkZrRAdCQ9zjqURKoLeAFmtpT4BhcGua
8APcoMuf2SDjxuHo0o17dmcoAWmMbv414yeiJg5+XKQfh3xXr+kjwS0R6dlCqDay
zAg96BLCUuHnD3T+z+MPX3bewVaulsBDaGtSNRs4hbWRjewvUPNMkgm4xUm/iLtA
mJxcCUrHx1YMBtnDsGIF2EjOZoMem+HoZYms3r6ZFrjgp/xJBgBneWiqHVPKdhp6
WWuPKATgE9/8YGTqVZEdv0b3Yu6BXXuogPR4gUEn8zNN7hIJS02HFV+LKTuxWmOl
GmRT3puttYl3x8RBrp401Qd90Qi2viTJIII5I7zfl5ByHXjGYXrKzJdDAOR1o/HR
YnijQ+d57jP7JzTi8+PH8QTQCUDnckcD2VfehU+1zWCHaaMpftknUkE4gmHu/LBO
njkVIJ9r1hehymspY6aY8sfYHGRSsLZn2Rtkw2/gNGK3qpyrcogN/3fQL3Xk3A0a
00yO8p+utkkDpKzqQBhgXC/UsxOSkN+54dPaemaQkmq9PlJ1Uvki9pYDRjbOXKm1
qRRNRnAeKxB7nB4iGQVzmzUaH1LGoN/nfzjmVIkKO/RS4Es4S6bV2CKp8uunisqX
UhEfzEmQhoUMsBRXXPlS+n7fQpeQzqrw9uuizXT2SKACcW8WMF/3rPB73p3YiBkt
UQ==
-----END CERTIFICATE-----
