Certificate:
    Data:
        Version: 3 (0x2)
        Serial Number:
            7d:2b:5b:7f:9f:30:c3:b2:38:c6:e5:19:82:f0:c2:86
        Signature Algorithm: sha256WithRSAEncryption
        Issuer: C=IN, O=Example, CN=Example.com
        Validity
            Not Before: Jul  4 15:51:26 2019 GMT
            Not After : Jul  1 15:51:26 2029 GMT
        Subject: C=IN, O=Example, CN=Example.com
        Subject Public Key Info:
            Public Key Algorithm: rsaEncryption
                RSA Public-Key: (4096 bit)
                Modulus:
                    00:de:c3:e2:7f:4f:9c:68:e4:f3:04:4c:18:1a:cd:
                    f1:a8:6f:66:26:41:d5:5f:6c:ab:cf:5e:6a:69:23:
                    95:3e:37:ab:2d:96:4c:a5:c9:b8:4c:ed:8d:84:0c:
                    a7:b3:b4:d6:f5:3b:0a:41:ae:70:34:8d:c6:78:b1:
                    c8:22:d1:4a:31:79:b2:a9:93:1b:64:47:df:e6:5c:
                    43:13:c4:a0:50:28:a5:8e:ac:d8:c7:6e:8b:68:07:
                    26:55:a7:c4:f9:b2:8b:49:c1:ec:a1:38:10:fd:0b:
                    d8:96:d5:88:28:64:de:1f:29:87:3c:d8:95:3c:38:
                    2e:9b:63:8b:3f:43:23:65:dd:2b:56:cf:2b:7a:17:
                    a8:8c:e9:f1:32:1e:82:b9:2a:6f:d6:5c:f0:9d:d3:
                    8a:98:22:13:7b:c3:4d:5f:d0:09:da:c1:9b:77:df:
                    cb:40:3d:e3:d4:3c:71:60:f3:67:4c:dc:db:67:f8:
                    d7:2f:19:e1:c3:9f:50:f8:f3:53:c3:f9:e9:a0:76:
                    98:fe:4c:a0:ad:36:8a:85:37:76:a9:23:40:43:bf:
                    1f:b7:98:a2:f7:cd:4e:4e:f8:3b:20:0f:e0:c6:9e:
                    c2:40:98:58:1e:b4:2c:39:19:25:62:fe:99:93:2f:
                    f1:4e:c5:98:3d:8b:18:6e:1f:ff:4f:ce:2b:f8:a6:
                    70:ba:77:c2:8b:db:ac:08:6b:0a:6e:34:d9:ab:97:
                    e2:fe:69:98:79:86:e8:0f:6b:6b:a6:0b:9d:c4:96:
                    16:8e:32:15:9e:ba:bc:48:42:d1:6a:d6:e8:a3:6e:
                    1e:32:d4:71:b2:04:3b:8c:c3:2f:3f:4b:f7:75:5a:
                    4b:cb:12:ca:03:c0:3b:1a:0a:3a:3a:fa:4a:0e:ea:
                    c8:14:f1:8e:68:22:be:de:bd:b3:72:8a:f5:90:51:
                    07:37:d0:e1:92:c8:a2:72:4c:80:ec:a2:08:de:75:
                    71:71:13:5d:1a:83:00:bb:a9:ea:a3:33:4b:48:f7:
                    ce:65:e0:af:d9:85:94:89:4c:44:9e:f2:65:15:88:
                    ed:e2:77:99:b3:38:aa:1d:9a:1a:68:5e:a4:e6:2a:
                    fe:c2:fa:01:db:96:ec:e5:a9:0d:be:60:95:c3:8a:
                    a9:c7:b0:fa:be:d3:9c:ab:a1:e1:2f:7c:d5:53:3d:
                    d7:2c:07:0a:37:56:4a:27:36:78:55:05:c3:81:a7:
                    9c:ac:c8:00:a0:14:00:2b:92:5b:80:a5:e4:25:80:
                    ca:08:8e:e1:a7:a5:25:ae:2b:71:86:2e:81:3f:ae:
                    ea:6c:fa:90:71:9e:a6:c3:8c:b4:68:43:2b:c0:ba:
                    25:52:ca:66:05:dc:60:2c:03:aa:db:3a:2d:7f:80:
                    ce:76:33
                Exponent: 65537 (0x10001)
        X509v3 extensions:
            X509v3 Basic Constraints: critical
                CA:TRUE
            X509v3 Key Usage: critical
                Certificate Sign, CRL Sign
            X509v3 Subject Key Identifier: 
                D8:1F:D9:8D:3D:D8:9A:58:0A:D6:97:7D:A4:4D:37:BB:05:E3:A3:AD
    Signature Algorithm: sha256WithRSAEncryption
         c2:4f:21:47:aa:1d:e1:54:f7:fc:a8:d2:78:6c:a9:a1:e1:de:
         1f:bf:61:d3:b0:7c:b2:3c:f5:d7:c4:03:4c:0f:7a:bf:1b:77:
         f9:dd:da:c8:4b:d7:92:f1:45:1a:5a:9d:b1:85:e0:41:3d:9e:
         36:97:52:5e:e2:41:42:d5:6b:3b:d1:ce:d2:b3:97:cf:c9:76:
         c1:e4:d0:5a:b8:ae:ee:90:59:c7:e5:8a:6a:5f:b4:47:83:ee:
         ec:f9:84:b6:b0:bc:bd:f3:53:d9:0f:16:be:e1:e1:38:f2:93:
         b5:e4:06:6f:aa:b5:75:5e:f5:71:9d:76:23:75:30:e1:b2:bc:
         c8:72:1f:7f:bf:95:69:04:86:5f:d6:3c:c2:1b:0b:6a:af:1b:
         34:f8:ab:e8:10:b7:76:e8:73:4f:90:f0:81:ac:62:8b:89:7a:
         f3:53:a4:39:e3:b1:94:08:59:65:f2:e7:d3:50:78:ef:5c:e0:
         df:6b:a4:80:45:7a:a2:ba:e6:ef:96:d5:c6:43:12:00:0d:01:
         ec:50:eb:9a:4e:81:8b:37:9f:a3:da:30:c2:10:a3:91:7e:6c:
         bc:2a:1a:9a:cd:64:ab:79:47:ed:ae:d9:15:a7:61:ee:b2:6d:
         58:5b:b0:c6:5e:8a:69:59:59:4a:32:21:cb:bf:56:a9:1c:62:
         1e:98:db:b6:5d:e7:8f:84:33:0c:1f:ba:0c:04:d5:6f:35:38:
         4d:7d:1e:01:16:8b:3a:9e:e0:f5:67:2f:fa:07:27:28:01:d6:
         a0:3b:20:d1:29:32:c4:79:25:e0:36:01:5d:67:4a:75:d3:68:
         29:57:c3:25:5c:cd:21:8f:7c:b9:fa:e5:62:c4:81:81:d7:3f:
         64:6e:41:20:bf:56:a7:5d:5d:67:fa:10:d0:8d:53:db:03:4b:
         de:77:95:24:21:86:0e:c2:85:e7:ca:a7:63:ae:4e:07:7e:b3:
         97:94:76:9e:d2:15:cf:09:39:4c:fb:35:3e:e6:49:85:02:b7:
         4a:b9:9d:72:9b:64:a3:0e:e1:6b:37:94:20:b4:0c:a0:53:42:
         a1:e4:47:b3:5e:74:9f:7f:66:54:20:7f:61:ce:88:05:ed:2f:
         c6:d2:46:9e:4e:76:33:7a:52:dc:7a:44:9b:c4:1d:4b:8c:1f:
         18:03:8f:98:d3:42:57:d2:2a:ab:4f:78:3a:00:81:72:49:46:
         e9:44:8a:94:81:a4:37:38:2b:37:f8:5f:56:1e:49:15:18:20:
         d7:bc:ca:86:3d:73:c5:2f:da:56:4b:3f:45:dd:c2:b1:46:43:
         c0:56:58:3d:d4:e4:7b:6e:87:3f:0a:c9:46:e2:50:19:3c:bd:
         3d:19:c7:9c:56:4e:44:bf
-----BEGIN CERTIFICATE-----
MIIFNjCCAx6gAwIBAgIQfStbf58ww7I4xuUZgvDChjANBgkqhkiG9w0BAQsFADA1
MQswCQYDVQQGEwJJTjEQMA4GA1UECgwHRXhhbXBsZTEUMBIGA1UEAwwLRXhhbXBs
ZS5jb20wHhcNMTkwNzA0MTU1MTI2WhcNMjkwNzAxMTU1MTI2WjA1MQswCQYDVQQG
EwJJTjEQMA4GA1UECgwHRXhhbXBsZTEUMBIGA1UEAwwLRXhhbXBsZS5jb20wggIi
MA0GCSqGSIb3DQEBAQUAA4ICDwAwggIKAoICAQDew+J/T5xo5PMETBgazfGob2Ym
QdVfbKvPXmppI5U+N6stlkylybhM7Y2EDKeztNb1OwpBrnA0jcZ4scgi0UoxebKp
kxtkR9/mXEMTxKBQKKWOrNjHbotoByZVp8T5sotJweyhOBD9C9iW1YgoZN4fKYc8
2JU8OC6bY4s/QyNl3StWzyt6F6iM6fEyHoK5Km/WXPCd04qYIhN7w01f0AnawZt3
38tAPePUPHFg82dM3Ntn+NcvGeHDn1D481PD+emgdpj+TKCtNoqFN3apI0BDvx+3
mKL3zU5O+DsgD+DGnsJAmFgetCw5GSVi/pmTL/FOxZg9ixhuH/9Pziv4pnC6d8KL
26wIawpuNNmrl+L+aZh5hugPa2umC53ElhaOMhWeurxIQtFq1uijbh4y1HGyBDuM
wy8/S/d1WkvLEsoDwDsaCjo6+koO6sgU8Y5oIr7evbNyivWQUQc30OGSyKJyTIDs
ogjedXFxE10agwC7qeqjM0tI985l4K/ZhZSJTESe8mUViO3id5mzOKodmhpoXqTm
Kv7C+gHbluzlqQ2+YJXDiqnHsPq+05yroeEvfNVTPdcsBwo3VkonNnhVBcOBp5ys
yACgFAArkluApeQlgMoIjuGnpSWuK3GGLoE/rups+pBxnqbDjLRoQyvAuiVSymYF
3GAsA6rbOi1/gM52MwIDAQABo0IwQDAPBgNVHRMBAf8EBTADAQH/MA4GA1UdDwEB
/wQEAwIBBjAdBgNVHQ4EFgQU2B/ZjT3YmlgK1pd9pE03uwXjo60wDQYJKoZIhvcN
AQELBQADggIBAMJPIUeqHeFU9/yo0nhsqaHh3h+/YdOwfLI89dfEA0wPer8bd/nd
2shL15LxRRpanbGF4EE9njaXUl7iQULVazvRztKzl8/JdsHk0Fq4ru6QWcflimpf
tEeD7uz5hLawvL3zU9kPFr7h4Tjyk7XkBm+qtXVe9XGddiN1MOGyvMhyH3+/lWkE
hl/WPMIbC2qvGzT4q+gQt3boc0+Q8IGsYouJevNTpDnjsZQIWWXy59NQeO9c4N9r
pIBFeqK65u+W1cZDEgANAexQ65pOgYs3n6PaMMIQo5F+bLwqGprNZKt5R+2u2RWn
Ye6ybVhbsMZeimlZWUoyIcu/VqkcYh6Y27Zd54+EMwwfugwE1W81OE19HgEWizqe
4PVnL/oHJygB1qA7INEpMsR5JeA2AV1nSnXTaClXwyVczSGPfLn65WLEgYHXP2Ru
QSC/VqddXWf6ENCNU9sDS953lSQhhg7ChefKp2OuTgd+s5eUdp7SFc8JOUz7NT7m
SYUCt0q5nXKbZKMO4Ws3lCC0DKBTQqHkR7NedJ9/ZlQgf2HOiAXtL8bSRp5OdjN6
Utx6RJvEHUuMHxgDj5jTQlfSKqtPeDoAgXJJRulEipSBpDc4Kzf4X1YeSRUYINe8
yoY9c8Uv2lZLP0XdwrFGQ8BWWD3U5Htuhz8KyUbiUBk8vT0Zx5xWTkS/
-----END CERTIFICATE-----
