Certificate:
    Data:
        Version: 3 (0x2)
        Serial Number:
            7d:2b:5b:7f:9f:30:c3:b2:38:c6:e5:19:82:f0:c2:87
        Signature Algorithm: sha256WithRSAEncryption
        Issuer: C=IN, O=Example, CN=Example.com
        Validity
            Not Before: Jul  4 16:02:18 2019 GMT
            Not After : Jul  1 16:02:18 2029 GMT
        Subject: C=IN, O=Example, CN=Example SubCA
        Subject Public Key Info:
            Public Key Algorithm: rsaEncryption
                RSA Public-Key: (4096 bit)
                Modulus:
                    00:e1:31:41:d0:b2:c7:84:09:b7:6e:1e:f7:22:70:
                    3f:b1:12:e1:ae:61:ae:63:99:ac:00:1b:b9:a6:e2:
                    1c:6f:8b:da:42:da:bb:25:0c:b0:a9:4d:ed:e4:2d:
                    98:6a:47:a1:c6:35:33:12:b6:3a:c0:fa:05:2c:46:
                    e5:d8:dd:c4:98:70:a6:9f:31:34:0b:3f:23:49:c6:
                    f9:d9:df:05:70:52:77:87:d8:1f:4d:c0:c9:e7:17:
                    36:c6:3a:19:ab:02:5a:6d:94:49:8c:d4:72:fb:92:
                    4c:a1:d7:5d:ef:0f:4f:6d:b5:e6:e1:1a:3d:e4:21:
                    79:c7:6a:82:31:c6:57:a3:3e:ea:ce:57:7e:d6:08:
                    80:81:87:94:4b:ea:03:d4:7a:74:77:58:c7:42:de:
                    42:46:2b:1e:d9:86:41:c8:a7:93:b2:2d:59:ec:13:
                    32:33:c3:54:05:51:f3:79:53:ae:08:e5:0d:32:14:
                    cd:b8:06:cf:e0:cf:fb:b5:b5:52:3d:49:e4:f9:0a:
                    45:a7:8f:92:a3:99:a1:9f:98:fc:ca:0e:ad:cc:ef:
                    37:90:c8:a6:29:9f:21:c0:ec:71:20:2d:69:c8:b9:
                    95:f8:42:51:ae:f1:d2:6b:28:ad:0a:4c:d3:a5:ee:
                    65:a5:9a:52:7e:d8:e1:29:57:62:5e:d1:eb:c1:0f:
                    61:23:d9:3f:17:a3:6c:41:fe:bb:a5:6d:84:fc:07:
                    9f:c7:82:3f:47:f1:34:06:41:e9:ca:17:d0:21:4c:
                    d0:09:98:14:e8:66:9d:f7:63:36:65:a6:a3:0a:d1:
                    25:27:cc:e8:96:24:f3:ff:63:b1:5d:bf:f2:8b:db:
                    e2:c1:9e:21:3e:44:39:f3:6d:f5:b9:3c:70:25:99:
                    f9:84:25:70:d9:9d:9f:05:c9:49:27:1a:bf:38:63:
                    13:83:8f:be:64:1d:22:47:92:04:64:56:9f:99:3b:
                    62:35:df:1c:83:da:b1:87:64:6e:23:bd:b9:33:50:
                    b2:fb:b1:03:89:21:5b:6f:e3:0b:d8:42:59:1c:79:
                    e4:dd:77:ef:68:a2:10:58:77:4c:c3:cf:47:42:57:
                    f3:f4:5b:ae:dd:74:fe:43:ee:62:40:56:c5:12:35:
                    1e:a9:1a:c7:cf:73:a6:fc:5b:13:66:e3:d5:b9:f2:
                    d8:cc:89:28:28:3c:c3:13:a3:c0:6b:d7:43:a9:df:
                    04:1e:83:fe:5f:86:6d:f8:8a:e0:07:0a:1a:20:0d:
                    85:5b:ad:8d:ad:67:cc:d9:82:a4:e0:5b:62:73:b4:
                    61:13:2f:3c:b2:d3:68:73:fa:1d:a2:b6:b4:65:d4:
                    5d:3c:b6:1c:15:1b:d1:bd:19:aa:54:79:ac:75:dd:
                    f1:04:ef
                Exponent: 65537 (0x10001)
        X509v3 extensions:
            Authority Information Access: 
                CA Issuers - URI:http://root-ca.example.com/root-ca.crt
                OCSP - URI:http://ocsp.root-ca.example.com:9080

            X509v3 Authority Key Identifier: 
                keyid:D8:1F:D9:8D:3D:D8:9A:58:0A:D6:97:7D:A4:4D:37:BB:05:E3:A3:AD

            X509v3 Basic Constraints: critical
                CA:TRUE, pathlen:0
            X509v3 CRL Distribution Points: 

                Full Name:
                  URI:http://root-ca.example.com/root-ca.crl

            X509v3 Extended Key Usage: 
                TLS Web Client Authentication, TLS Web Server Authentication
            X509v3 Key Usage: critical
                Certificate Sign, CRL Sign
            X509v3 Subject Key Identifier: 
                07:CE:A9:EE:BA:4B:86:F2:F4:79:05:37:99:59:DD:F3:43:A2:DE:AC
    Signature Algorithm: sha256WithRSAEncryption
         a9:b1:6e:3d:a1:3b:6f:2d:96:4a:54:d5:ca:0e:b1:f8:e9:fa:
         78:bc:f0:65:46:1c:36:67:65:f2:bd:96:e7:04:74:f9:08:5f:
         3d:0d:0e:31:a6:af:1b:c3:94:7a:de:22:f8:06:97:10:98:9c:
         71:32:fa:81:b0:71:3a:f9:4c:24:d3:d4:72:40:c4:3f:25:00:
         5a:ee:e8:88:59:3b:b2:da:18:86:d3:08:77:13:dd:14:6f:5d:
         30:f6:aa:89:56:60:23:a5:86:5f:e8:7b:de:3e:4f:87:d9:81:
         08:1e:14:51:1e:c5:41:52:95:3e:75:98:9a:3a:ee:e9:5d:e3:
         31:c7:7f:43:31:f6:79:25:cc:0a:f4:e3:4b:2d:0a:68:a4:54:
         68:12:2d:3a:c2:75:cc:a6:8c:0d:47:a3:c3:9b:10:8a:39:71:
         e4:81:66:6d:4c:21:8d:fa:c1:32:d6:98:41:a4:5d:f6:b9:16:
         96:02:68:cd:59:0d:c1:e2:d7:c1:cc:46:15:95:22:c3:42:55:
         2a:b4:4e:6e:f5:64:d5:6d:ab:95:b7:92:5d:63:e7:0c:59:ce:
         97:93:fb:cd:f8:f2:4f:3b:1d:fb:fa:74:3f:34:7c:57:c0:d8:
         a7:7b:9f:ce:a6:55:e6:46:2f:2a:3b:b0:32:bd:bf:25:eb:86:
         8d:63:dc:b6:03:6f:0c:53:c6:a0:10:ae:b5:2a:d0:cf:ad:92:
         42:b5:27:7e:43:04:bb:58:5a:d9:0c:48:23:2f:13:7b:32:70:
         8f:cb:3e:96:28:88:42:f9:79:53:3f:21:fb:9e:c8:92:b1:aa:
         45:d3:c8:2c:6e:58:b4:5c:03:9a:f7:b3:5e:17:28:69:d2:b6:
         91:48:30:62:07:fb:3b:9b:13:08:7b:13:7c:5d:f4:8c:cb:15:
         89:d2:ec:1c:ef:b9:b4:e5:c6:e6:2f:3c:38:13:8a:fb:d8:16:
         b4:1c:e8:cf:b3:9d:f5:bc:e5:ae:34:30:64:d2:76:46:f3:fe:
         f5:b0:3c:4b:bb:d1:a9:0d:55:51:7d:60:9a:d4:b3:a3:e5:88:
         c5:6b:f9:7a:b6:ca:e3:64:e7:06:4c:08:44:23:f3:1e:c1:f1:
         85:35:07:20:b7:97:b2:55:2b:e4:f8:74:93:9f:8c:ad:1c:49:
         f1:f1:99:5e:76:71:70:a4:c3:6f:7c:86:fa:4e:71:8d:fd:32:
         66:8d:c8:de:95:b1:19:69:fe:36:61:79:fb:36:db:53:33:34:
         62:dd:ae:c7:3e:14:24:c0:ce:ae:4e:ae:d3:55:48:fb:2d:b9:
         2b:1b:64:12:e1:20:91:f0:e2:a5:cc:ce:b8:e3:dd:61:b9:85:
         4a:16:8c:e4:8b:35:eb:3b
-----BEGIN CERTIFICATE-----
MIIGLjCCBBagAwIBAgIQfStbf58ww7I4xuUZgvDChzANBgkqhkiG9w0BAQsFADA1
MQswCQYDVQQGEwJJTjEQMA4GA1UECgwHRXhhbXBsZTEUMBIGA1UEAwwLRXhhbXBs
ZS5jb20wHhcNMTkwNzA0MTYwMjE4WhcNMjkwNzAxMTYwMjE4WjA3MQswCQYDVQQG
EwJJTjEQMA4GA1UECgwHRXhhbXBsZTEWMBQGA1UEAwwNRXhhbXBsZSBTdWJDQTCC
AiIwDQYJKoZIhvcNAQEBBQADggIPADCCAgoCggIBAOExQdCyx4QJt24e9yJwP7ES
4a5hrmOZrAAbuabiHG+L2kLauyUMsKlN7eQtmGpHocY1MxK2OsD6BSxG5djdxJhw
pp8xNAs/I0nG+dnfBXBSd4fYH03AyecXNsY6GasCWm2USYzUcvuSTKHXXe8PT221
5uEaPeQhecdqgjHGV6M+6s5XftYIgIGHlEvqA9R6dHdYx0LeQkYrHtmGQcink7It
WewTMjPDVAVR83lTrgjlDTIUzbgGz+DP+7W1Uj1J5PkKRaePkqOZoZ+Y/MoOrczv
N5DIpimfIcDscSAtaci5lfhCUa7x0msorQpM06XuZaWaUn7Y4SlXYl7R68EPYSPZ
PxejbEH+u6VthPwHn8eCP0fxNAZB6coX0CFM0AmYFOhmnfdjNmWmowrRJSfM6JYk
8/9jsV2/8ovb4sGeIT5EOfNt9bk8cCWZ+YQlcNmdnwXJSScavzhjE4OPvmQdIkeS
BGRWn5k7YjXfHIPasYdkbiO9uTNQsvuxA4khW2/jC9hCWRx55N1372iiEFh3TMPP
R0JX8/Rbrt10/kPuYkBWxRI1Hqkax89zpvxbE2bj1bny2MyJKCg8wxOjwGvXQ6nf
BB6D/l+GbfiK4AcKGiANhVutja1nzNmCpOBbYnO0YRMvPLLTaHP6HaK2tGXUXTy2
HBUb0b0ZqlR5rHXd8QTvAgMBAAGjggE2MIIBMjB0BggrBgEFBQcBAQRoMGYwMgYI
KwYBBQUHMAKGJmh0dHA6Ly9yb290LWNhLmV4YW1wbGUuY29tL3Jvb3QtY2EuY3J0
MDAGCCsGAQUFBzABhiRodHRwOi8vb2NzcC5yb290LWNhLmV4YW1wbGUuY29tOjkw
ODAwHwYDVR0jBBgwFoAU2B/ZjT3YmlgK1pd9pE03uwXjo60wEgYDVR0TAQH/BAgw
BgEB/wIBADA3BgNVHR8EMDAuMCygKqAohiZodHRwOi8vcm9vdC1jYS5leGFtcGxl
LmNvbS9yb290LWNhLmNybDAdBgNVHSUEFjAUBggrBgEFBQcDAgYIKwYBBQUHAwEw
DgYDVR0PAQH/BAQDAgEGMB0GA1UdDgQWBBQHzqnuukuG8vR5BTeZWd3zQ6LerDAN
BgkqhkiG9w0BAQsFAAOCAgEAqbFuPaE7by2WSlTVyg6x+On6eLzwZUYcNmdl8r2W
5wR0+QhfPQ0OMaavG8OUet4i+AaXEJiccTL6gbBxOvlMJNPUckDEPyUAWu7oiFk7
stoYhtMIdxPdFG9dMPaqiVZgI6WGX+h73j5Ph9mBCB4UUR7FQVKVPnWYmjru6V3j
Mcd/QzH2eSXMCvTjSy0KaKRUaBItOsJ1zKaMDUejw5sQijlx5IFmbUwhjfrBMtaY
QaRd9rkWlgJozVkNweLXwcxGFZUiw0JVKrRObvVk1W2rlbeSXWPnDFnOl5P7zfjy
Tzsd+/p0PzR8V8DYp3ufzqZV5kYvKjuwMr2/JeuGjWPctgNvDFPGoBCutSrQz62S
QrUnfkMEu1ha2QxIIy8TezJwj8s+liiIQvl5Uz8h+57IkrGqRdPILG5YtFwDmvez
XhcoadK2kUgwYgf7O5sTCHsTfF30jMsVidLsHO+5tOXG5i88OBOK+9gWtBzoz7Od
9bzlrjQwZNJ2RvP+9bA8S7vRqQ1VUX1gmtSzo+WIxWv5erbK42TnBkwIRCPzHsHx
hTUHILeXslUr5Ph0k5+MrRxJ8fGZXnZxcKTDb3yG+k5xjf0yZo3I3pWxGWn+NmF5
+zbbUzM0Yt2uxz4UJMDOrk6u01VI+y25KxtkEuEgkfDipczOuOPdYbmFShaM5Is1
6zs=
-----END CERTIFICATE-----
