Certificate:
    Data:
        Version: 3 (0x2)
        Serial Number:
            7d:2b:5b:7f:9f:30:c3:b2:38:c6:e5:19:82:f0:c2:88
        Signature Algorithm: sha256WithRSAEncryption
        Issuer: C=IN, O=Example, CN=Example SubCA
        Validity
            Not Before: Jul  4 16:31:49 2019 GMT
            Not After : Jul  3 16:31:49 2020 GMT
        Subject: C=IN, ST=Tamil Nadu, O=Example, OU=Finance, CN=127.0.0.1/emailAddress=admin@coolcompany.example
        Subject Public Key Info:
            Public Key Algorithm: rsaEncryption
                RSA Public-Key: (2048 bit)
                Modulus:
                    00:a5:8b:ec:35:4c:fb:5c:46:9f:4e:a5:be:7b:32:
                    c4:17:a0:d3:09:88:01:5e:36:04:f1:7d:c1:98:31:
                    35:ea:62:ad:22:4a:5d:19:bd:0f:0f:f0:3a:f5:ca:
                    66:ee:b0:a1:85:4f:af:b7:3a:d7:9d:60:5f:cd:b6:
                    5f:fd:0f:db:94:5b:02:4f:e4:ad:b6:25:0d:25:bb:
                    ce:55:86:27:2b:3e:57:df:72:1a:79:04:29:b5:dc:
                    a5:23:5a:ff:48:72:a4:88:fb:fb:d3:f1:5c:1a:c4:
                    05:e6:e0:b9:56:0e:c8:91:8e:fb:66:9d:68:67:e5:
                    ca:ae:45:4c:e4:6b:05:6f:68:eb:6b:0c:05:d4:de:
                    7b:40:f9:27:30:94:0f:ab:41:75:d1:38:9e:9c:04:
                    49:b1:9c:47:97:e6:70:ae:35:7a:e1:79:12:bd:50:
                    71:53:73:49:51:af:c0:73:f7:21:e8:75:a3:99:49:
                    b7:0d:7f:df:4b:64:a0:4c:5c:a3:6a:dc:1f:17:6c:
                    dd:00:a9:05:2e:7d:db:fc:ab:5a:65:17:e0:75:5f:
                    77:b2:70:aa:97:be:02:6f:10:44:29:e3:31:b5:4b:
                    b7:94:da:ba:23:75:4d:0c:b9:78:77:0e:65:aa:65:
                    8a:a5:c1:11:5c:6e:1e:96:27:22:20:20:15:de:96:
                    a5:c3
                Exponent: 65537 (0x10001)
        X509v3 extensions:
            Authority Information Access: 
                CA Issuers - URI:http://sub-ca.example.com/sub-ca.crt
                OCSP - URI:http://ocsp.sub-ca.example.com:9081

            X509v3 Authority Key Identifier: 
                keyid:07:CE:A9:EE:BA:4B:86:F2:F4:79:05:37:99:59:DD:F3:43:A2:DE:AC

            X509v3 Basic Constraints: critical
                CA:FALSE
            X509v3 CRL Distribution Points: 

                Full Name:
                  URI:http://sub-ca.example.com/sub-ca.crl

            X509v3 Extended Key Usage: 
                TLS Web Client Authentication
            X509v3 Key Usage: critical
                Digital Signature
            X509v3 Subject Key Identifier: 
                B2:45:C4:C7:2A:FC:0E:55:10:7B:90:67:06:DE:C4:12:CF:C5:D5:A7
    Signature Algorithm: sha256WithRSAEncryption
         e0:54:f5:70:7b:15:ca:10:0b:7e:b2:1f:6e:9f:3c:b7:05:d9:
         a6:33:5f:00:25:95:76:3a:c9:04:aa:26:df:8b:fe:e4:96:cd:
         a1:31:7d:ba:32:00:e1:78:e0:14:0c:c5:24:14:e9:92:32:c1:
         9b:b9:b1:ee:a9:06:92:7f:91:b2:a2:79:0b:92:d5:e0:59:b6:
         0a:60:59:d7:9f:99:ce:54:2d:62:a6:2f:67:c5:de:47:8d:ad:
         4c:0d:32:c4:8a:f5:3d:46:36:23:90:1a:2c:a0:c9:2a:a2:e2:
         96:ef:ac:55:8c:79:58:a5:e9:a6:50:db:05:20:9e:9e:a9:30:
         9b:b9:df:1c:d0:b9:4b:2b:0f:5c:9a:98:f4:b4:bd:66:ea:ab:
         a1:78:d1:b9:26:5c:40:83:9e:8a:ff:f8:2d:6a:2d:c4:55:03:
         8a:e0:ad:a2:92:71:ee:cd:a9:3e:df:8a:bc:d0:2a:bc:82:b7:
         aa:56:d2:3c:65:b8:fe:d8:9e:80:67:86:b4:58:10:c9:04:e6:
         ba:78:63:98:d6:02:61:ef:16:19:8a:61:ec:5c:7d:a8:b3:d0:
         91:90:c7:5d:9c:38:c5:a2:d8:9e:fb:c4:31:bc:18:63:b3:89:
         e8:2e:4e:8c:7d:d2:2d:4c:e6:4e:a7:9c:66:63:90:d9:62:b9:
         ec:4e:86:3c:e2:fa:02:34:76:64:77:01:ae:b8:12:6a:e3:ba:
         41:1a:10:c8:8c:91:53:b8:29:70:52:6b:a7:d3:43:7c:e7:bd:
         a4:62:6f:2f:30:c0:b1:9d:63:50:41:5d:d6:b4:d1:3b:07:fb:
         69:58:9a:34:1c:b9:ef:e2:e2:ad:b5:62:79:da:d4:c0:d3:43:
         38:8b:33:fb:80:9b:f8:09:86:a6:67:3d:d2:7c:a2:55:85:29:
         1a:dd:c5:fb:da:bd:bc:74:96:22:c2:7e:8a:83:3b:a2:17:aa:
         a0:9b:16:38:db:2b:2b:5e:37:27:9d:3d:79:c6:bc:72:d8:e2:
         82:74:ef:d0:92:a3:d8:e4:d6:8b:2f:1b:fa:93:a1:90:c3:1a:
         da:59:e2:d2:ee:3a:ab:8e:48:48:88:0e:a3:fe:47:0d:58:57:
         33:dc:5c:c2:0a:da:9c:0c:ba:ff:4b:f0:26:1c:41:21:d4:6e:
         d3:54:ba:cc:6a:91:68:39:cc:1c:46:58:35:d1:f7:4b:4b:99:
         67:b5:dc:8c:1e:62:82:40:d0:65:93:8f:70:55:38:2a:05:b7:
         6b:24:cc:9e:f2:31:e1:a5:6b:38:94:f7:26:3b:97:a4:27:38:
         5c:2a:98:be:90:31:76:74:ba:29:73:c2:4b:f7:6d:a9:8f:31:
         f7:fd:71:80:e0:cc:e7:17
-----BEGIN CERTIFICATE-----
MIIFaTCCA1GgAwIBAgIQfStbf58ww7I4xuUZgvDCiDANBgkqhkiG9w0BAQsFADA3
MQswCQYDVQQGEwJJTjEQMA4GA1UECgwHRXhhbXBsZTEWMBQGA1UEAwwNRXhhbXBs
ZSBTdWJDQTAeFw0xOTA3MDQxNjMxNDlaFw0yMDA3MDMxNjMxNDlaMIGEMQswCQYD
VQQGEwJJTjETMBEGA1UECAwKVGFtaWwgTmFkdTEQMA4GA1UECgwHRXhhbXBsZTEQ
MA4GA1UECwwHRmluYW5jZTESMBAGA1UEAwwJMTI3LjAuMC4xMSgwJgYJKoZIhvcN
AQkBFhlhZG1pbkBjb29sY29tcGFueS5leGFtcGxlMIIBIjANBgkqhkiG9w0BAQEF
AAOCAQ8AMIIBCgKCAQEApYvsNUz7XEafTqW+ezLEF6DTCYgBXjYE8X3BmDE16mKt
IkpdGb0PD/A69cpm7rChhU+vtzrXnWBfzbZf/Q/blFsCT+SttiUNJbvOVYYnKz5X
33IaeQQptdylI1r/SHKkiPv70/FcGsQF5uC5Vg7IkY77Zp1oZ+XKrkVM5GsFb2jr
awwF1N57QPknMJQPq0F10TienARJsZxHl+ZwrjV64XkSvVBxU3NJUa/Ac/ch6HWj
mUm3DX/fS2SgTFyjatwfF2zdAKkFLn3b/KtaZRfgdV93snCql74CbxBEKeMxtUu3
lNq6I3VNDLl4dw5lqmWKpcERXG4eliciICAV3palwwIDAQABo4IBITCCAR0wcQYI
KwYBBQUHAQEEZTBjMDAGCCsGAQUFBzAChiRodHRwOi8vc3ViLWNhLmV4YW1wbGUu
Y29tL3N1Yi1jYS5jcnQwLwYIKwYBBQUHMAGGI2h0dHA6Ly9vY3NwLnN1Yi1jYS5l
eGFtcGxlLmNvbTo5MDgxMB8GA1UdIwQYMBaAFAfOqe66S4by9HkFN5lZ3fNDot6s
MAwGA1UdEwEB/wQCMAAwNQYDVR0fBC4wLDAqoCigJoYkaHR0cDovL3N1Yi1jYS5l
eGFtcGxlLmNvbS9zdWItY2EuY3JsMBMGA1UdJQQMMAoGCCsGAQUFBwMCMA4GA1Ud
DwEB/wQEAwIHgDAdBgNVHQ4EFgQUskXExyr8DlUQe5BnBt7EEs/F1acwDQYJKoZI
hvcNAQELBQADggIBAOBU9XB7FcoQC36yH26fPLcF2aYzXwAllXY6yQSqJt+L/uSW
zaExfboyAOF44BQMxSQU6ZIywZu5se6pBpJ/kbKieQuS1eBZtgpgWdefmc5ULWKm
L2fF3keNrUwNMsSK9T1GNiOQGiygySqi4pbvrFWMeVil6aZQ2wUgnp6pMJu53xzQ
uUsrD1yamPS0vWbqq6F40bkmXECDnor/+C1qLcRVA4rgraKSce7NqT7firzQKryC
t6pW0jxluP7YnoBnhrRYEMkE5rp4Y5jWAmHvFhmKYexcfaiz0JGQx12cOMWi2J77
xDG8GGOzieguTox90i1M5k6nnGZjkNliuexOhjzi+gI0dmR3Aa64EmrjukEaEMiM
kVO4KXBSa6fTQ3znvaRiby8wwLGdY1BBXda00TsH+2lYmjQcue/i4q21Ynna1MDT
QziLM/uAm/gJhqZnPdJ8olWFKRrdxfvavbx0liLCfoqDO6IXqqCbFjjbKyteNyed
PXnGvHLY4oJ079CSo9jk1osvG/qToZDDGtpZ4tLuOquOSEiIDqP+Rw1YVzPcXMIK
2pwMuv9L8CYcQSHUbtNUusxqkWg5zBxGWDXR90tLmWe13IweYoJA0GWTj3BVOCoF
t2skzJ7yMeGlaziU9yY7l6QnOFwqmL6QMXZ0uilzwkv3bamPMff9cYDgzOcX
-----END CERTIFICATE-----
