Certificate:
    Data:
        Version: 3 (0x2)
        Serial Number:
            7d:2b:5b:7f:9f:30:c3:b2:38:c6:e5:19:82:f0:c2:8a
        Signature Algorithm: sha256WithRSAEncryption
        Issuer: C=IN, O=Example, CN=Example SubCA
        Validity
            Not Before: Jul  4 17:04:49 2019 GMT
            Not After : Jul  3 17:04:49 2020 GMT
        Subject: C=IN, ST=Tamil Nadu, O=Example, OU=Finance, CN=127.0.0.1/emailAddress=admin@coolcompany.example
        Subject Public Key Info:
            Public Key Algorithm: rsaEncryption
                RSA Public-Key: (2048 bit)
                Modulus:
                    00:a5:8b:ec:35:4c:fb:5c:46:9f:4e:a5:be:7b:32:
                    c4:17:a0:d3:09:88:01:5e:36:04:f1:7d:c1:98:31:
                    35:ea:62:ad:22:4a:5d:19:bd:0f:0f:f0:3a:f5:ca:
                    66:ee:b0:a1:85:4f:af:b7:3a:d7:9d:60:5f:cd:b6:
                    5f:fd:0f:db:94:5b:02:4f:e4:ad:b6:25:0d:25:bb:
                    ce:55:86:27:2b:3e:57:df:72:1a:79:04:29:b5:dc:
                    a5:23:5a:ff:48:72:a4:88:fb:fb:d3:f1:5c:1a:c4:
                    05:e6:e0:b9:56:0e:c8:91:8e:fb:66:9d:68:67:e5:
                    ca:ae:45:4c:e4:6b:05:6f:68:eb:6b:0c:05:d4:de:
                    7b:40:f9:27:30:94:0f:ab:41:75:d1:38:9e:9c:04:
                    49:b1:9c:47:97:e6:70:ae:35:7a:e1:79:12:bd:50:
                    71:53:73:49:51:af:c0:73:f7:21:e8:75:a3:99:49:
                    b7:0d:7f:df:4b:64:a0:4c:5c:a3:6a:dc:1f:17:6c:
                    dd:00:a9:05:2e:7d:db:fc:ab:5a:65:17:e0:75:5f:
                    77:b2:70:aa:97:be:02:6f:10:44:29:e3:31:b5:4b:
                    b7:94:da:ba:23:75:4d:0c:b9:78:77:0e:65:aa:65:
                    8a:a5:c1:11:5c:6e:1e:96:27:22:20:20:15:de:96:
                    a5:c3
                Exponent: 65537 (0x10001)
        X509v3 extensions:
            Authority Information Access: 
                CA Issuers - URI:http://sub-ca.example.com/sub-ca.crt
                OCSP - URI:http://ocsp.sub-ca.example.com:9081

            X509v3 Authority Key Identifier: 
                keyid:07:CE:A9:EE:BA:4B:86:F2:F4:79:05:37:99:59:DD:F3:43:A2:DE:AC

            X509v3 Basic Constraints: critical
                CA:FALSE
            X509v3 CRL Distribution Points: 

                Full Name:
                  URI:http://sub-ca.example.com/sub-ca.crl

            X509v3 Extended Key Usage: 
                TLS Web Client Authentication
            X509v3 Key Usage: critical
                Digital Signature, Key Encipherment
            X509v3 Subject Key Identifier: 
                B2:45:C4:C7:2A:FC:0E:55:10:7B:90:67:06:DE:C4:12:CF:C5:D5:A7
    Signature Algorithm: sha256WithRSAEncryption
         54:65:87:a1:b1:04:93:95:ec:76:c5:e1:be:77:2d:98:51:40:
         f7:4b:f7:19:5f:65:f7:9e:03:4c:23:39:03:d7:5a:03:c4:0b:
         a4:11:ea:ce:ae:e9:fb:25:ff:f2:6e:1b:66:6b:ad:b4:28:d9:
         bb:6e:b6:2a:67:25:14:5a:7b:8f:e2:f1:1a:be:aa:c3:b4:5f:
         58:21:43:fa:5b:6f:f3:10:91:b4:60:92:16:32:89:b2:03:9f:
         54:e5:c5:66:5b:8b:c6:d2:9b:6a:56:e9:74:a4:32:72:55:e6:
         db:3b:62:fd:fd:ba:5f:99:16:67:a1:b0:db:e9:26:e3:52:31:
         8f:15:c0:46:e9:7a:09:43:57:6b:f8:88:48:5b:59:bd:31:1e:
         ab:84:eb:85:81:e6:1b:b1:5c:a3:f5:2b:d4:d1:84:72:8e:cf:
         5d:78:2e:51:09:09:76:bc:cd:17:25:0d:1a:df:19:33:af:91:
         cf:d5:11:81:8d:98:ab:5c:16:71:90:78:bc:1e:75:8b:80:11:
         81:a8:3d:c0:ef:a5:f4:28:06:ff:f8:bc:bf:fe:47:05:49:d7:
         48:70:e5:ba:2f:6b:f0:bb:f6:ed:58:e2:f8:75:1f:1b:bb:15:
         99:a4:29:ce:3c:7f:50:0f:20:02:f6:34:ad:57:36:3d:67:5f:
         61:bf:53:b6:67:f6:6f:0c:e7:28:81:3c:67:6c:1d:4a:eb:bc:
         17:10:a8:c8:32:f1:1d:90:68:37:14:fe:64:71:ee:91:0a:68:
         a9:77:a8:e3:f9:40:a9:91:1c:1c:b5:16:f5:49:9a:bf:a3:db:
         aa:dc:e3:d7:41:bf:f6:86:c1:05:3a:35:45:3a:c1:3c:ba:51:
         b1:a6:ba:09:24:ee:ed:df:f8:18:d6:68:40:bc:95:df:5e:bc:
         e5:81:a5:15:7d:b9:36:ab:4d:54:81:28:3b:00:18:a4:85:b6:
         d7:a8:48:47:c1:51:09:5c:ec:32:ba:b5:d4:c1:71:cb:e7:ea:
         74:ec:8d:e9:6a:01:61:74:c9:41:e9:d9:e0:1a:5e:18:0b:b4:
         b0:6f:ee:e6:86:da:0d:62:f3:61:75:94:a6:a1:90:09:78:43:
         00:67:36:0c:59:f5:09:a8:b0:40:f2:04:29:bc:8d:21:08:b2:
         0c:83:9b:cc:f6:e2:bd:94:fc:af:67:f7:34:fe:9a:b3:ea:bc:
         0f:a5:9a:ec:37:8d:ee:0f:35:bf:40:b8:46:88:ee:1b:f0:4d:
         28:fb:2c:98:6a:e5:2a:ea:70:42:a1:73:06:e6:e3:39:04:50:
         4d:5f:23:ec:a7:8a:f4:17:67:3c:4f:1e:3d:02:00:16:94:79:
         8d:28:7b:a5:2f:a1:71:1f
-----BEGIN CERTIFICATE-----
MIIFaTCCA1GgAwIBAgIQfStbf58ww7I4xuUZgvDCijANBgkqhkiG9w0BAQsFADA3
MQswCQYDVQQGEwJJTjEQMA4GA1UECgwHRXhhbXBsZTEWMBQGA1UEAwwNRXhhbXBs
ZSBTdWJDQTAeFw0xOTA3MDQxNzA0NDlaFw0yMDA3MDMxNzA0NDlaMIGEMQswCQYD
VQQGEwJJTjETMBEGA1UECAwKVGFtaWwgTmFkdTEQMA4GA1UECgwHRXhhbXBsZTEQ
MA4GA1UECwwHRmluYW5jZTESMBAGA1UEAwwJMTI3LjAuMC4xMSgwJgYJKoZIhvcN
AQkBFhlhZG1pbkBjb29sY29tcGFueS5leGFtcGxlMIIBIjANBgkqhkiG9w0BAQEF
AAOCAQ8AMIIBCgKCAQEApYvsNUz7XEafTqW+ezLEF6DTCYgBXjYE8X3BmDE16mKt
IkpdGb0PD/A69cpm7rChhU+vtzrXnWBfzbZf/Q/blFsCT+SttiUNJbvOVYYnKz5X
33IaeQQptdylI1r/SHKkiPv70/FcGsQF5uC5Vg7IkY77Zp1oZ+XKrkVM5GsFb2jr
awwF1N57QPknMJQPq0F10TienARJsZxHl+ZwrjV64XkSvVBxU3NJUa/Ac/ch6HWj
mUm3DX/fS2SgTFyjatwfF2zdAKkFLn3b/KtaZRfgdV93snCql74CbxBEKeMxtUu3
lNq6I3VNDLl4dw5lqmWKpcERXG4eliciICAV3palwwIDAQABo4IBITCCAR0wcQYI
KwYBBQUHAQEEZTBjMDAGCCsGAQUFBzAChiRodHRwOi8vc3ViLWNhLmV4YW1wbGUu
Y29tL3N1Yi1jYS5jcnQwLwYIKwYBBQUHMAGGI2h0dHA6Ly9vY3NwLnN1Yi1jYS5l
eGFtcGxlLmNvbTo5MDgxMB8GA1UdIwQYMBaAFAfOqe66S4by9HkFN5lZ3fNDot6s
MAwGA1UdEwEB/wQCMAAwNQYDVR0fBC4wLDAqoCigJoYkaHR0cDovL3N1Yi1jYS5l
eGFtcGxlLmNvbS9zdWItY2EuY3JsMBMGA1UdJQQMMAoGCCsGAQUFBwMCMA4GA1Ud
DwEB/wQEAwIFoDAdBgNVHQ4EFgQUskXExyr8DlUQe5BnBt7EEs/F1acwDQYJKoZI
hvcNAQELBQADggIBAFRlh6GxBJOV7HbF4b53LZhRQPdL9xlfZfeeA0wjOQPXWgPE
C6QR6s6u6fsl//JuG2ZrrbQo2btutipnJRRae4/i8Rq+qsO0X1ghQ/pbb/MQkbRg
khYyibIDn1TlxWZbi8bSm2pW6XSkMnJV5ts7Yv39ul+ZFmehsNvpJuNSMY8VwEbp
eglDV2v4iEhbWb0xHquE64WB5huxXKP1K9TRhHKOz114LlEJCXa8zRclDRrfGTOv
kc/VEYGNmKtcFnGQeLwedYuAEYGoPcDvpfQoBv/4vL/+RwVJ10hw5bova/C79u1Y
4vh1Hxu7FZmkKc48f1APIAL2NK1XNj1nX2G/U7Zn9m8M5yiBPGdsHUrrvBcQqMgy
8R2QaDcU/mRx7pEKaKl3qOP5QKmRHBy1FvVJmr+j26rc49dBv/aGwQU6NUU6wTy6
UbGmugkk7u3f+BjWaEC8ld9evOWBpRV9uTarTVSBKDsAGKSFtteoSEfBUQlc7DK6
tdTBccvn6nTsjelqAWF0yUHp2eAaXhgLtLBv7uaG2g1i82F1lKahkAl4QwBnNgxZ
9QmosEDyBCm8jSEIsgyDm8z24r2U/K9n9zT+mrPqvA+lmuw3je4PNb9AuEaI7hvw
TSj7LJhq5SrqcEKhcwbm4zkEUE1fI+ynivQXZzxPHj0CABaUeY0oe6UvoXEf
-----END CERTIFICATE-----
