Certificate:
    Data:
        Version: 3 (0x2)
        Serial Number:
            7d:2b:5b:7f:9f:30:c3:b2:38:c6:e5:19:82:f0:c2:8b
        Signature Algorithm: sha256WithRSAEncryption
        Issuer: C=IN, O=Example, CN=Example SubCA
        Validity
            Not Before: Jul  4 17:10:09 2019 GMT
            Not After : Jul  3 17:10:09 2020 GMT
        Subject: C=IN, ST=Tamil Nadu, O=Example, OU=Finance, CN=127.0.0.1/emailAddress=admin@coolcompany.example
        Subject Public Key Info:
            Public Key Algorithm: rsaEncryption
                RSA Public-Key: (2048 bit)
                Modulus:
                    00:a5:8b:ec:35:4c:fb:5c:46:9f:4e:a5:be:7b:32:
                    c4:17:a0:d3:09:88:01:5e:36:04:f1:7d:c1:98:31:
                    35:ea:62:ad:22:4a:5d:19:bd:0f:0f:f0:3a:f5:ca:
                    66:ee:b0:a1:85:4f:af:b7:3a:d7:9d:60:5f:cd:b6:
                    5f:fd:0f:db:94:5b:02:4f:e4:ad:b6:25:0d:25:bb:
                    ce:55:86:27:2b:3e:57:df:72:1a:79:04:29:b5:dc:
                    a5:23:5a:ff:48:72:a4:88:fb:fb:d3:f1:5c:1a:c4:
                    05:e6:e0:b9:56:0e:c8:91:8e:fb:66:9d:68:67:e5:
                    ca:ae:45:4c:e4:6b:05:6f:68:eb:6b:0c:05:d4:de:
                    7b:40:f9:27:30:94:0f:ab:41:75:d1:38:9e:9c:04:
                    49:b1:9c:47:97:e6:70:ae:35:7a:e1:79:12:bd:50:
                    71:53:73:49:51:af:c0:73:f7:21:e8:75:a3:99:49:
                    b7:0d:7f:df:4b:64:a0:4c:5c:a3:6a:dc:1f:17:6c:
                    dd:00:a9:05:2e:7d:db:fc:ab:5a:65:17:e0:75:5f:
                    77:b2:70:aa:97:be:02:6f:10:44:29:e3:31:b5:4b:
                    b7:94:da:ba:23:75:4d:0c:b9:78:77:0e:65:aa:65:
                    8a:a5:c1:11:5c:6e:1e:96:27:22:20:20:15:de:96:
                    a5:c3
                Exponent: 65537 (0x10001)
        X509v3 extensions:
            Authority Information Access: 
                CA Issuers - URI:http://sub-ca.example.com/sub-ca.crt
                OCSP - URI:http://ocsp.sub-ca.example.com:9081

            X509v3 Authority Key Identifier: 
                keyid:07:CE:A9:EE:BA:4B:86:F2:F4:79:05:37:99:59:DD:F3:43:A2:DE:AC

            X509v3 Basic Constraints: critical
                CA:FALSE
            X509v3 CRL Distribution Points: 

                Full Name:
                  URI:http://sub-ca.example.com/sub-ca.crl

            X509v3 Extended Key Usage: 
                TLS Web Server Authentication
            X509v3 Key Usage: critical
                Digital Signature, Key Encipherment
            X509v3 Subject Key Identifier: 
                B2:45:C4:C7:2A:FC:0E:55:10:7B:90:67:06:DE:C4:12:CF:C5:D5:A7
    Signature Algorithm: sha256WithRSAEncryption
         a2:d5:43:f8:e5:eb:91:de:7e:d7:c9:74:f1:81:13:34:a7:39:
         83:8a:70:d5:94:b0:8f:8c:10:f8:33:0e:91:f8:81:cb:ac:e7:
         a9:8c:91:82:6b:92:45:94:0b:e7:38:2d:d9:6a:62:bd:bd:b3:
         15:75:18:6b:9a:cd:8a:e4:7e:28:f4:30:76:bb:8d:3e:63:16:
         41:66:3f:77:ca:31:e2:e8:1a:ce:a6:d2:d8:5c:20:2f:a3:da:
         43:91:08:97:9e:f0:60:9e:82:36:5e:fb:1d:1a:cb:64:95:67:
         68:3b:9d:79:c1:f4:c2:54:88:db:de:b2:af:b6:cb:fc:47:27:
         0b:ec:cc:b8:a6:ae:43:8c:7c:bd:87:96:45:1b:1c:10:64:5d:
         eb:73:a2:7f:7f:bb:ef:1f:8c:b4:b5:52:cd:52:29:be:82:a9:
         27:ef:dd:ab:68:f6:95:29:ad:b2:02:7e:7a:60:fb:05:cc:15:
         88:a7:2d:64:ef:00:f1:58:c4:cb:47:65:2a:45:a2:4f:a3:1e:
         ba:3e:c3:fa:d2:1a:ab:51:69:a0:17:38:1c:04:ef:1c:d3:25:
         be:3f:a0:96:9b:25:1c:de:9a:06:ed:8e:e8:d5:ca:5c:e1:ba:
         03:d0:21:3a:47:41:d8:89:5b:43:a7:bf:97:98:2f:41:8f:d2:
         96:a9:b5:06:05:3d:a9:9b:a9:da:77:49:58:25:c3:a6:9e:2f:
         84:d7:59:59:df:03:9a:0c:8f:06:95:0e:29:4a:e6:34:e5:f0:
         38:11:92:3e:2a:6b:d4:27:eb:60:a1:9c:01:1e:14:4e:9a:af:
         8a:19:ee:16:15:01:80:64:cc:73:73:69:82:ad:c9:f1:62:3d:
         51:93:a6:ba:3d:4d:c3:94:b7:3c:13:44:b7:34:c8:b9:9a:4e:
         1d:70:1e:42:46:57:65:ff:53:5e:ae:17:8d:c7:3e:7d:7c:87:
         dc:4c:52:d7:a3:ee:5b:0d:83:84:68:72:3e:d3:ba:60:30:7f:
         d1:5b:d8:4c:b7:1d:e9:d5:16:ff:63:67:cf:76:7d:4d:19:a0:
         28:94:04:7c:b8:62:59:15:9d:bc:4f:a0:e6:2c:ce:12:a9:03:
         45:43:be:d1:fd:d6:a8:b6:db:7c:c8:ab:94:2b:15:b0:a2:80:
         e7:06:bc:70:21:d3:a9:af:8b:f0:f8:05:0b:15:2d:e0:25:e6:
         13:34:f7:e4:75:d3:d9:6a:75:ff:5c:bc:f1:f6:bd:ad:d5:00:
         ab:88:bc:f4:dc:54:11:e4:6e:4e:a2:62:8d:16:51:fe:58:e8:
         fe:a0:f8:92:bb:70:20:4e:74:54:c1:f5:03:dd:44:2a:7b:b3:
         db:c4:4c:68:f3:57:a3:ea
-----BEGIN CERTIFICATE-----
MIIFaTCCA1GgAwIBAgIQfStbf58ww7I4xuUZgvDCizANBgkqhkiG9w0BAQsFADA3
MQswCQYDVQQGEwJJTjEQMA4GA1UECgwHRXhhbXBsZTEWMBQGA1UEAwwNRXhhbXBs
ZSBTdWJDQTAeFw0xOTA3MDQxNzEwMDlaFw0yMDA3MDMxNzEwMDlaMIGEMQswCQYD
VQQGEwJJTjETMBEGA1UECAwKVGFtaWwgTmFkdTEQMA4GA1UECgwHRXhhbXBsZTEQ
MA4GA1UECwwHRmluYW5jZTESMBAGA1UEAwwJMTI3LjAuMC4xMSgwJgYJKoZIhvcN
AQkBFhlhZG1pbkBjb29sY29tcGFueS5leGFtcGxlMIIBIjANBgkqhkiG9w0BAQEF
AAOCAQ8AMIIBCgKCAQEApYvsNUz7XEafTqW+ezLEF6DTCYgBXjYE8X3BmDE16mKt
IkpdGb0PD/A69cpm7rChhU+vtzrXnWBfzbZf/Q/blFsCT+SttiUNJbvOVYYnKz5X
33IaeQQptdylI1r/SHKkiPv70/FcGsQF5uC5Vg7IkY77Zp1oZ+XKrkVM5GsFb2jr
awwF1N57QPknMJQPq0F10TienARJsZxHl+ZwrjV64XkSvVBxU3NJUa/Ac/ch6HWj
mUm3DX/fS2SgTFyjatwfF2zdAKkFLn3b/KtaZRfgdV93snCql74CbxBEKeMxtUu3
lNq6I3VNDLl4dw5lqmWKpcERXG4eliciICAV3palwwIDAQABo4IBITCCAR0wcQYI
KwYBBQUHAQEEZTBjMDAGCCsGAQUFBzAChiRodHRwOi8vc3ViLWNhLmV4YW1wbGUu
Y29tL3N1Yi1jYS5jcnQwLwYIKwYBBQUHMAGGI2h0dHA6Ly9vY3NwLnN1Yi1jYS5l
eGFtcGxlLmNvbTo5MDgxMB8GA1UdIwQYMBaAFAfOqe66S4by9HkFN5lZ3fNDot6s
MAwGA1UdEwEB/wQCMAAwNQYDVR0fBC4wLDAqoCigJoYkaHR0cDovL3N1Yi1jYS5l
eGFtcGxlLmNvbS9zdWItY2EuY3JsMBMGA1UdJQQMMAoGCCsGAQUFBwMBMA4GA1Ud
DwEB/wQEAwIFoDAdBgNVHQ4EFgQUskXExyr8DlUQe5BnBt7EEs/F1acwDQYJKoZI
hvcNAQELBQADggIBAKLVQ/jl65HeftfJdPGBEzSnOYOKcNWUsI+MEPgzDpH4gcus
56mMkYJrkkWUC+c4LdlqYr29sxV1GGuazYrkfij0MHa7jT5jFkFmP3fKMeLoGs6m
0thcIC+j2kORCJee8GCegjZe+x0ay2SVZ2g7nXnB9MJUiNvesq+2y/xHJwvszLim
rkOMfL2HlkUbHBBkXetzon9/u+8fjLS1Us1SKb6CqSfv3ato9pUprbICfnpg+wXM
FYinLWTvAPFYxMtHZSpFok+jHro+w/rSGqtRaaAXOBwE7xzTJb4/oJabJRzemgbt
jujVylzhugPQITpHQdiJW0Onv5eYL0GP0paptQYFPambqdp3SVglw6aeL4TXWVnf
A5oMjwaVDilK5jTl8DgRkj4qa9Qn62ChnAEeFE6ar4oZ7hYVAYBkzHNzaYKtyfFi
PVGTpro9TcOUtzwTRLc0yLmaTh1wHkJGV2X/U16uF43HPn18h9xMUtej7lsNg4Ro
cj7TumAwf9Fb2Ey3HenVFv9jZ892fU0ZoCiUBHy4YlkVnbxPoOYszhKpA0VDvtH9
1qi223zIq5QrFbCigOcGvHAh06mvi/D4BQsVLeAl5hM09+R109lqdf9cvPH2va3V
AKuIvPTcVBHkbk6iYo0WUf5Y6P6g+JK7cCBOdFTB9QPdRCp7s9vETGjzV6Pq
-----END CERTIFICATE-----
